target datalayout = "e-m:e-p270:32:32-p271:32:32-p272:64:64-i64:64-i128:128-f80:128-n8:16:32:64-S128"
target triple = "x86_64-pc-linux-gnu"

%struct.archive_write = type { %struct.archive, i32, i64, i64, ptr, i64, ptr, ptr, ptr, ptr, ptr, i32, i32, ptr, ptr, ptr, ptr, ptr, ptr, ptr, ptr, ptr, ptr, ptr, ptr, ptr, ptr }
%struct.archive = type { i32, i32, ptr, i32, ptr, i32, i32, ptr, %struct.archive_string, ptr, i32, i32, ptr, ptr, i64, i64, i64, i8, i64 }
%struct.archive_string = type { ptr, i64, i64 }
%struct.pax = type { i64, i64, %struct.archive_string, %struct.archive_string, %struct.archive_string, i64, ptr, ptr, ptr, i32, i32 }
%struct.sparse_block = type { ptr, i32, i64, i64 }

; Function Attrs: nounwind uwtable
define internal i64 @archive_write_pax_data(ptr noundef %0, ptr noundef %1, i64 noundef %2) #0 {
  %4 = alloca i64, align 8
  %5 = alloca ptr, align 8
  %6 = alloca ptr, align 8
  %7 = alloca i64, align 8
  %8 = alloca ptr, align 8
  %9 = alloca i64, align 8
  %10 = alloca i64, align 8
  %11 = alloca i32, align 4
  %12 = alloca ptr, align 8
  %13 = alloca ptr, align 8
  store ptr %0, ptr %5, align 8
  store ptr %1, ptr %6, align 8
  store i64 %2, ptr %7, align 8
  %14 = load ptr, ptr %5, align 8
  %15 = getelementptr inbounds %struct.archive_write, ptr %14, i32 0, i32 15
  %16 = load ptr, ptr %15, align 8
  store ptr %16, ptr %8, align 8
  %17 = load ptr, ptr %8, align 8
  %18 = getelementptr inbounds %struct.pax, ptr %17, i32 0, i32 4
  %19 = getelementptr inbounds %struct.archive_string, ptr %18, i32 0, i32 1
  %20 = load i64, ptr %19, align 8
  %21 = icmp ne i64 %20, 0
  br i1 %21, label %22, label %53

22:                                               ; preds = %3
  %23 = load ptr, ptr %5, align 8
  %24 = load ptr, ptr %8, align 8
  %25 = getelementptr inbounds %struct.pax, ptr %24, i32 0, i32 4
  %26 = getelementptr inbounds %struct.archive_string, ptr %25, i32 0, i32 0
  %27 = load ptr, ptr %26, align 8
  %28 = load ptr, ptr %8, align 8
  %29 = getelementptr inbounds %struct.pax, ptr %28, i32 0, i32 4
  %30 = getelementptr inbounds %struct.archive_string, ptr %29, i32 0, i32 1
  %31 = load i64, ptr %30, align 8
  %32 = call i32 @__archive_write_output(ptr noundef %23, ptr noundef %27, i64 noundef %31)
  store i32 %32, ptr %11, align 4
  %33 = load i32, ptr %11, align 4
  %34 = icmp ne i32 %33, 0
  br i1 %34, label %35, label %38

35:                                               ; preds = %22
  %36 = load i32, ptr %11, align 4
  %37 = sext i32 %36 to i64
  store i64 %37, ptr %4, align 8
  br label %153

38:                                               ; preds = %22
  %39 = load ptr, ptr %5, align 8
  %40 = load ptr, ptr %8, align 8
  %41 = getelementptr inbounds %struct.pax, ptr %40, i32 0, i32 5
  %42 = load i64, ptr %41, align 8
  %43 = call i32 @__archive_write_nulls(ptr noundef %39, i64 noundef %42)
  store i32 %43, ptr %11, align 4
  %44 = load i32, ptr %11, align 4
  %45 = icmp ne i32 %44, 0
  br i1 %45, label %46, label %49

46:                                               ; preds = %38
  %47 = load i32, ptr %11, align 4
  %48 = sext i32 %47 to i64
  store i64 %48, ptr %4, align 8
  br label %153

49:                                               ; preds = %38
  %50 = load ptr, ptr %8, align 8
  %51 = getelementptr inbounds %struct.pax, ptr %50, i32 0, i32 4
  %52 = getelementptr inbounds %struct.archive_string, ptr %51, i32 0, i32 1
  store i64 0, ptr %52, align 8
  br label %53

53:                                               ; preds = %49, %3
  store i64 0, ptr %10, align 8
  br label %54

54:                                               ; preds = %150, %119, %53
  %55 = load i64, ptr %10, align 8
  %56 = load i64, ptr %7, align 8
  %57 = icmp ult i64 %55, %56
  br i1 %57, label %58, label %151

58:                                               ; preds = %54
  br label %59

59:                                               ; preds = %73, %58
  %60 = load ptr, ptr %8, align 8
  %61 = getelementptr inbounds %struct.pax, ptr %60, i32 0, i32 6
  %62 = load ptr, ptr %61, align 8
  %63 = icmp ne ptr %62, null
  br i1 %63, label %64, label %71

64:                                               ; preds = %59
  %65 = load ptr, ptr %8, align 8
  %66 = getelementptr inbounds %struct.pax, ptr %65, i32 0, i32 6
  %67 = load ptr, ptr %66, align 8
  %68 = getelementptr inbounds %struct.sparse_block, ptr %67, i32 0, i32 3
  %69 = load i64, ptr %68, align 8
  %70 = icmp eq i64 %69, 0
  br label %71

71:                                               ; preds = %64, %59
  %72 = phi i1 [ false, %59 ], [ %70, %64 ]
  br i1 %72, label %73, label %85

73:                                               ; preds = %71
  %74 = load ptr, ptr %8, align 8
  %75 = getelementptr inbounds %struct.pax, ptr %74, i32 0, i32 6
  %76 = load ptr, ptr %75, align 8
  %77 = getelementptr inbounds %struct.sparse_block, ptr %76, i32 0, i32 0
  %78 = load ptr, ptr %77, align 8
  store ptr %78, ptr %13, align 8
  %79 = load ptr, ptr %8, align 8
  %80 = getelementptr inbounds %struct.pax, ptr %79, i32 0, i32 6
  %81 = load ptr, ptr %80, align 8
  call void @free(ptr noundef %81) #11
  %82 = load ptr, ptr %13, align 8
  %83 = load ptr, ptr %8, align 8
  %84 = getelementptr inbounds %struct.pax, ptr %83, i32 0, i32 6
  store ptr %82, ptr %84, align 8
  br label %59, !llvm.loop !9

85:                                               ; preds = %71
  %86 = load ptr, ptr %8, align 8
  %87 = getelementptr inbounds %struct.pax, ptr %86, i32 0, i32 6
  %88 = load ptr, ptr %87, align 8
  %89 = icmp eq ptr %88, null
  br i1 %89, label %90, label %92

90:                                               ; preds = %85
  %91 = load i64, ptr %10, align 8
  store i64 %91, ptr %4, align 8
  br label %153

92:                                               ; preds = %85
  %93 = load ptr, ptr %6, align 8
  %94 = load i64, ptr %10, align 8
  %95 = getelementptr inbounds i8, ptr %93, i64 %94
  store ptr %95, ptr %12, align 8
  %96 = load i64, ptr %7, align 8
  %97 = load i64, ptr %10, align 8
  %98 = sub i64 %96, %97
  store i64 %98, ptr %9, align 8
  %99 = load i64, ptr %9, align 8
  %100 = load ptr, ptr %8, align 8
  %101 = getelementptr inbounds %struct.pax, ptr %100, i32 0, i32 6
  %102 = load ptr, ptr %101, align 8
  %103 = getelementptr inbounds %struct.sparse_block, ptr %102, i32 0, i32 3
  %104 = load i64, ptr %103, align 8
  %105 = icmp ugt i64 %99, %104
  br i1 %105, label %106, label %112

106:                                              ; preds = %92
  %107 = load ptr, ptr %8, align 8
  %108 = getelementptr inbounds %struct.pax, ptr %107, i32 0, i32 6
  %109 = load ptr, ptr %108, align 8
  %110 = getelementptr inbounds %struct.sparse_block, ptr %109, i32 0, i32 3
  %111 = load i64, ptr %110, align 8
  store i64 %111, ptr %9, align 8
  br label %112

112:                                              ; preds = %106, %92
  %113 = load ptr, ptr %8, align 8
  %114 = getelementptr inbounds %struct.pax, ptr %113, i32 0, i32 6
  %115 = load ptr, ptr %114, align 8
  %116 = getelementptr inbounds %struct.sparse_block, ptr %115, i32 0, i32 1
  %117 = load i32, ptr %116, align 8
  %118 = icmp ne i32 %117, 0
  br i1 %118, label %119, label %130

119:                                              ; preds = %112
  %120 = load i64, ptr %9, align 8
  %121 = load ptr, ptr %8, align 8
  %122 = getelementptr inbounds %struct.pax, ptr %121, i32 0, i32 6
  %123 = load ptr, ptr %122, align 8
  %124 = getelementptr inbounds %struct.sparse_block, ptr %123, i32 0, i32 3
  %125 = load i64, ptr %124, align 8
  %126 = sub i64 %125, %120
  store i64 %126, ptr %124, align 8
  %127 = load i64, ptr %9, align 8
  %128 = load i64, ptr %10, align 8
  %129 = add i64 %128, %127
  store i64 %129, ptr %10, align 8
  br label %54, !llvm.loop !10

130:                                              ; preds = %112
  %131 = load ptr, ptr %5, align 8
  %132 = load ptr, ptr %12, align 8
  %133 = load i64, ptr %9, align 8
  %134 = call i32 @__archive_write_output(ptr noundef %131, ptr noundef %132, i64 noundef %133)
  store i32 %134, ptr %11, align 4
  %135 = load i64, ptr %9, align 8
  %136 = load ptr, ptr %8, align 8
  %137 = getelementptr inbounds %struct.pax, ptr %136, i32 0, i32 6
  %138 = load ptr, ptr %137, align 8
  %139 = getelementptr inbounds %struct.sparse_block, ptr %138, i32 0, i32 3
  %140 = load i64, ptr %139, align 8
  %141 = sub i64 %140, %135
  store i64 %141, ptr %139, align 8
  %142 = load i64, ptr %9, align 8
  %143 = load i64, ptr %10, align 8
  %144 = add i64 %143, %142
  store i64 %144, ptr %10, align 8
  %145 = load i32, ptr %11, align 4
  %146 = icmp ne i32 %145, 0
  br i1 %146, label %147, label %150

147:                                              ; preds = %130
  %148 = load i32, ptr %11, align 4
  %149 = sext i32 %148 to i64
  store i64 %149, ptr %4, align 8
  br label %153

150:                                              ; preds = %130
  br label %54, !llvm.loop !10

151:                                              ; preds = %54
  %152 = load i64, ptr %10, align 8
  store i64 %152, ptr %4, align 8
  br label %153

153:                                              ; preds = %151, %147, %90, %46, %35
  %154 = load i64, ptr %4, align 8
  ret i64 %154
}