; Function Attrs: nounwind uwtable
define internal i64 @archive_write_pax_data(ptr noundef %0, ptr noundef %1, i64 noundef %2) #0 {
  %4 = getelementptr inbounds nuw i8, ptr %0, i64 248
  %5 = load ptr, ptr %4, align 8
  %6 = getelementptr inbounds nuw i8, ptr %5, i64 72
  %7 = load i64, ptr %6, align 8
  %.not = icmp eq i64 %7, 0
  br i1 %.not, label %21, label %8

8:                                                ; preds = %3
  %9 = getelementptr inbounds nuw i8, ptr %5, i64 64
  %10 = load ptr, ptr %9, align 8
  %11 = tail call i32 @__archive_write_output(ptr noundef nonnull %0, ptr noundef %10, i64 noundef %7) #15
  %.not54 = icmp eq i32 %11, 0
  br i1 %.not54, label %14, label %12

12:                                               ; preds = %8
  %13 = sext i32 %11 to i64
  br label %.critedge.thread

14:                                               ; preds = %8
  %15 = getelementptr inbounds nuw i8, ptr %5, i64 88
  %16 = load i64, ptr %15, align 8
  %17 = tail call i32 @__archive_write_nulls(ptr noundef nonnull %0, i64 noundef %16) #15
  %.not55 = icmp eq i32 %17, 0
  br i1 %.not55, label %20, label %18

18:                                               ; preds = %14
  %19 = sext i32 %17 to i64
  br label %.critedge.thread

20:                                               ; preds = %14
  store i64 0, ptr %6, align 8
  br label %21

21:                                               ; preds = %20, %3
  %.not69 = icmp eq i64 %2, 0
  br i1 %.not69, label %.critedge.thread, label %.preheader.lr.ph

.preheader.lr.ph:                                 ; preds = %21
  %22 = getelementptr inbounds nuw i8, ptr %5, i64 96
  br label %.preheader

.preheader:                                       ; preds = %.preheader.lr.ph, %.backedge
  %.04567 = phi i64 [ 0, %.preheader.lr.ph ], [ %.045.be, %.backedge ]
  %23 = load ptr, ptr %22, align 8
  %.not5665 = icmp eq ptr %23, null
  br i1 %.not5665, label %.critedge.thread, label %.lr.ph

.lr.ph:                                           ; preds = %.preheader, %28
  %24 = phi ptr [ %29, %28 ], [ %23, %.preheader ]
  %25 = getelementptr inbounds nuw i8, ptr %24, i64 24
  %26 = load i64, ptr %25, align 8
  %27 = icmp eq i64 %26, 0
  br i1 %27, label %28, label %.critedge

28:                                               ; preds = %.lr.ph
  %29 = load ptr, ptr %24, align 8
  tail call void @free(ptr noundef nonnull %24) #15
  store ptr %29, ptr %22, align 8
  %.not56 = icmp eq ptr %29, null
  br i1 %.not56, label %.critedge.thread, label %.lr.ph, !llvm.loop !12

.critedge:                                        ; preds = %.lr.ph
  %30 = sub i64 %2, %.04567
  %spec.select = tail call i64 @llvm.umin.i64(i64 %30, i64 %26)
  %31 = getelementptr inbounds nuw i8, ptr %24, i64 8
  %32 = load i32, ptr %31, align 8
  %.not57 = icmp eq i32 %32, 0
  br i1 %.not57, label %37, label %33

33:                                               ; preds = %.critedge
  %34 = getelementptr inbounds nuw i8, ptr %24, i64 24
  %35 = sub i64 %26, %spec.select
  store i64 %35, ptr %34, align 8
  br label %.backedge

.backedge:                                        ; preds = %33, %37
  %.045.be = add i64 %spec.select, %.04567
  %36 = icmp ult i64 %.045.be, %2
  br i1 %36, label %.preheader, label %.critedge.thread, !llvm.loop !13

37:                                               ; preds = %.critedge
  %38 = getelementptr inbounds i8, ptr %1, i64 %.04567
  %39 = tail call i32 @__archive_write_output(ptr noundef %0, ptr noundef %38, i64 noundef %spec.select) #15
  %40 = load ptr, ptr %22, align 8
  %41 = getelementptr inbounds nuw i8, ptr %40, i64 24
  %42 = load i64, ptr %41, align 8
  %43 = sub i64 %42, %spec.select
  store i64 %43, ptr %41, align 8
  %.not58 = icmp eq i32 %39, 0
  br i1 %.not58, label %.backedge, label %44

44:                                               ; preds = %37
  %45 = sext i32 %39 to i64
  br label %.critedge.thread

.critedge.thread:                                 ; preds = %.backedge, %.preheader, %28, %21, %44, %18, %12
  %.0 = phi i64 [ %13, %12 ], [ %19, %18 ], [ %45, %44 ], [ 0, %21 ], [ %.04567, %28 ], [ %.04567, %.preheader ], [ %.045.be, %.backedge ]
  ret i64 %.0
}